target datalayout = "e-m:e-p270:32:32-p271:32:32-p272:64:64-i64:64-i128:128-f80:128-n8:16:32:64-S128"
target triple = "x86_64-pc-linux-gnu"

%"class.cv::Rect_" = type { i32, i32, i32, i32 }

; Function Attrs: mustprogress uwtable
define noundef zeroext i1 @_ZN2cv6detail8tracking30TrackerContribSamplerAlgorithm8samplingERKNS_3MatERKNS_5Rect_IiEERSt6vectorIS3_SaIS3_EE(ptr noundef nonnull align 8 dereferenceable(40) %0, ptr noundef nonnull align 8 dereferenceable(96) %1, ptr noundef nonnull align 4 dereferenceable(16) %2, ptr noundef nonnull align 8 dereferenceable(24) %3) unnamed_addr #4 align 2 {
  %5 = alloca i1, align 1
  %6 = alloca ptr, align 8
  %7 = alloca ptr, align 8
  %8 = alloca ptr, align 8
  %9 = alloca ptr, align 8
  %10 = alloca %"class.cv::Rect_", align 4
  store ptr %0, ptr %6, align 8, !tbaa !135
  store ptr %1, ptr %7, align 8, !tbaa !66
  store ptr %2, ptr %8, align 8, !tbaa !128
  store ptr %3, ptr %9, align 8, !tbaa !137
  %11 = load ptr, ptr %6, align 8
  %12 = load ptr, ptr %7, align 8, !tbaa !66
  %13 = call noundef zeroext i1 @_ZNK2cv3Mat5emptyEv(ptr noundef nonnull align 8 dereferenceable(96) %12)
  br i1 %13, label %14, label %15

14:                                               ; preds = %4
  store i1 false, ptr %5, align 1
  br label %27

15:                                               ; preds = %4
  %16 = load ptr, ptr %7, align 8, !tbaa !66
  %17 = load ptr, ptr %8, align 8, !tbaa !128
  call void @llvm.memcpy.p0.p0.i64(ptr align 4 %10, ptr align 4 %17, i64 16, i1 false), !tbaa.struct !139
  %18 = load ptr, ptr %9, align 8, !tbaa !137
  %19 = getelementptr inbounds nuw { i64, i64 }, ptr %10, i32 0, i32 0
  %20 = load i64, ptr %19, align 4
  %21 = getelementptr inbounds nuw { i64, i64 }, ptr %10, i32 0, i32 1
  %22 = load i64, ptr %21, align 4
  %23 = load ptr, ptr %11, align 8, !tbaa !8
  %24 = getelementptr inbounds ptr, ptr %23, i64 3
  %25 = load ptr, ptr %24, align 8
  %26 = call noundef zeroext i1 %25(ptr noundef nonnull align 8 dereferenceable(40) %11, ptr noundef nonnull align 8 dereferenceable(96) %16, i64 %20, i64 %22, ptr noundef nonnull align 8 dereferenceable(24) %18)
  store i1 %26, ptr %5, align 1
  br label %27

27:                                               ; preds = %15, %14
  %28 = load i1, ptr %5, align 1
  ret i1 %28
}