; Function Attrs: mustprogress uwtable
define noundef zeroext i1 @_ZN2cv6detail8tracking30TrackerContribSamplerAlgorithm8samplingERKNS_3MatERKNS_5Rect_IiEERSt6vectorIS3_SaIS3_EE(ptr noundef nonnull align 8 dereferenceable(40) %0, ptr noundef nonnull align 8 dereferenceable(96) %1, ptr noundef nonnull readonly align 4 captures(none) dereferenceable(16) %2, ptr noundef nonnull align 8 dereferenceable(24) %3) unnamed_addr #3 align 2 {
  %5 = tail call noundef zeroext i1 @_ZNK2cv3Mat5emptyEv(ptr noundef nonnull align 8 dereferenceable(96) %1)
  br i1 %5, label %11, label %6

6:                                                ; preds = %4
  %.sroa.0.0.copyload = load i64, ptr %2, align 4
  %.sroa.2.0..sroa_idx = getelementptr inbounds nuw i8, ptr %2, i64 8
  %.sroa.2.0.copyload = load i64, ptr %.sroa.2.0..sroa_idx, align 4
  %7 = load ptr, ptr %0, align 8, !tbaa !3
  %8 = getelementptr inbounds nuw i8, ptr %7, i64 24
  %9 = load ptr, ptr %8, align 8
  %10 = tail call noundef zeroext i1 %9(ptr noundef nonnull align 8 dereferenceable(40) %0, ptr noundef nonnull align 8 dereferenceable(96) %1, i64 %.sroa.0.0.copyload, i64 %.sroa.2.0.copyload, ptr noundef nonnull align 8 dereferenceable(24) %3)
  br label %11

11:                                               ; preds = %4, %6
  %.0 = phi i1 [ %10, %6 ], [ false, %4 ]
  ret i1 %.0
}